target datalayout = "e-m:e-p270:32:32-p271:32:32-p272:64:64-i64:64-i128:128-f80:128-n8:16:32:64-S128"
target triple = "x86_64-pc-linux-gnu"

%"class.casadi::MX" = type { %"class.casadi::SharedObject" }
%"class.casadi::SharedObject" = type { ptr }

@_ZN6casadi10OutputNodeC1ERKNS_2MXEx = unnamed_addr alias void (ptr, ptr, i64), ptr @_ZN6casadi10OutputNodeC2ERKNS_2MXEx

; Function Attrs: mustprogress uwtable
define void @_ZNK6casadi14MultipleOutput10get_outputEx(ptr dead_on_unwind noalias writable sret(%"class.casadi::MX") align 8 %0, ptr noundef nonnull align 8 dereferenceable(64) %1, i64 noundef %2) unnamed_addr #4 align 2 personality ptr @__gxx_personality_v0 {
  %4 = alloca ptr, align 8
  %5 = alloca ptr, align 8
  %6 = alloca i64, align 8
  %7 = alloca %"class.casadi::MX", align 8
  %8 = alloca ptr, align 8
  %9 = alloca i32, align 4
  %10 = alloca i32, align 4
  store ptr %0, ptr %4, align 8
  store ptr %1, ptr %5, align 8
  store i64 %2, ptr %6, align 8
  %11 = load ptr, ptr %5, align 8
  call void @_ZNK6casadi20SharedObjectInternal16shared_from_thisINS_2MXEEEKT_v(ptr dead_on_unwind writable sret(%"class.casadi::MX") align 8 %7, ptr noundef nonnull align 8 dereferenceable(24) %11)
  %12 = invoke noundef ptr @_ZN6casadi2MXptEv(ptr noundef nonnull align 8 dereferenceable(8) %7)
          to label %13 unwind label %33

13:                                               ; preds = %3
  %14 = load i64, ptr %6, align 8
  %15 = load ptr, ptr %12, align 8
  %16 = getelementptr inbounds ptr, ptr %15, i64 44
  %17 = load ptr, ptr %16, align 8
  %18 = invoke noundef nonnull align 8 dereferenceable(8) ptr %17(ptr noundef nonnull align 8 dereferenceable(64) %12, i64 noundef %14)
          to label %19 unwind label %33

19:                                               ; preds = %13
  %20 = invoke noundef i64 @_ZNK6casadi8Sparsity3nnzEv(ptr noundef nonnull align 8 dereferenceable(8) %18)
          to label %21 unwind label %33

21:                                               ; preds = %19
  %22 = icmp eq i64 %20, 0
  br i1 %22, label %23, label %37

23:                                               ; preds = %21
  %24 = invoke noundef ptr @_ZN6casadi2MXptEv(ptr noundef nonnull align 8 dereferenceable(8) %7)
          to label %25 unwind label %33

25:                                               ; preds = %23
  %26 = load i64, ptr %6, align 8
  %27 = load ptr, ptr %24, align 8
  %28 = getelementptr inbounds ptr, ptr %27, i64 44
  %29 = load ptr, ptr %28, align 8
  %30 = invoke noundef nonnull align 8 dereferenceable(8) ptr %29(ptr noundef nonnull align 8 dereferenceable(64) %24, i64 noundef %26)
          to label %31 unwind label %33

31:                                               ; preds = %25
  invoke void @_ZN6casadi2MXC1ERKNS_8SparsityE(ptr noundef nonnull align 8 dereferenceable(8) %0, ptr noundef nonnull align 8 dereferenceable(8) %30)
          to label %32 unwind label %33

32:                                               ; preds = %31
  store i32 1, ptr %10, align 4
  br label %47

33:                                               ; preds = %41, %37, %31, %25, %23, %19, %13, %3
  %34 = landingpad { ptr, i32 }
          cleanup
  %35 = extractvalue { ptr, i32 } %34, 0
  store ptr %35, ptr %8, align 8
  %36 = extractvalue { ptr, i32 } %34, 1
  store i32 %36, ptr %9, align 4
  br label %48

37:                                               ; preds = %21
  %38 = invoke noalias noundef nonnull ptr @_Znwm(i64 noundef 72) #15
          to label %39 unwind label %33

39:                                               ; preds = %37
  %40 = load i64, ptr %6, align 8
  invoke void @_ZN6casadi10OutputNodeC1ERKNS_2MXEx(ptr noundef nonnull align 8 dereferenceable(72) %38, ptr noundef nonnull align 8 dereferenceable(8) %7, i64 noundef %40)
          to label %41 unwind label %43

41:                                               ; preds = %39
  invoke void @_ZN6casadi2MX6createEPNS_6MXNodeE(ptr dead_on_unwind writable sret(%"class.casadi::MX") align 8 %0, ptr noundef %38)
          to label %42 unwind label %33

42:                                               ; preds = %41
  store i32 1, ptr %10, align 4
  br label %47

43:                                               ; preds = %39
  %44 = landingpad { ptr, i32 }
          cleanup
  %45 = extractvalue { ptr, i32 } %44, 0
  store ptr %45, ptr %8, align 8
  %46 = extractvalue { ptr, i32 } %44, 1
  store i32 %46, ptr %9, align 4
  call void @_ZdlPv(ptr noundef %38) #16
  br label %48

47:                                               ; preds = %42, %32
  call void @_ZN6casadi2MXD1Ev(ptr noundef nonnull align 8 dereferenceable(8) %7) #3
  ret void

48:                                               ; preds = %43, %33
  call void @_ZN6casadi2MXD1Ev(ptr noundef nonnull align 8 dereferenceable(8) %7) #3
  br label %49

49:                                               ; preds = %48
  %50 = load ptr, ptr %8, align 8
  %51 = load i32, ptr %9, align 4
  %52 = insertvalue { ptr, i32 } poison, ptr %50, 0
  %53 = insertvalue { ptr, i32 } %52, i32 %51, 1
  resume { ptr, i32 } %53
}