; Function Attrs: mustprogress uwtable
define void @_ZNK6casadi14MultipleOutput10get_outputEx(ptr dead_on_unwind noalias writable sret(%"class.casadi::MX") align 8 %0, ptr noundef nonnull align 8 dereferenceable(64) %1, i64 noundef %2) unnamed_addr #3 align 2 personality ptr @__gxx_personality_v0 {
  %4 = alloca %"class.casadi::MX", align 8
  call void @_ZNK6casadi20SharedObjectInternal16shared_from_thisINS_2MXEEEKT_v(ptr dead_on_unwind nonnull writable sret(%"class.casadi::MX") align 8 %4, ptr noundef nonnull align 8 dereferenceable(24) %1)
  %5 = invoke noundef ptr @_ZN6casadi2MXptEv(ptr noundef nonnull align 8 dereferenceable(8) %4)
          to label %6 unwind label %23

6:                                                ; preds = %3
  %7 = load ptr, ptr %5, align 8
  %8 = getelementptr inbounds i8, ptr %7, i64 352
  %9 = load ptr, ptr %8, align 8
  %10 = invoke noundef nonnull align 8 dereferenceable(8) ptr %9(ptr noundef nonnull align 8 dereferenceable(64) %5, i64 noundef %2)
          to label %11 unwind label %23

11:                                               ; preds = %6
  %12 = invoke noundef i64 @_ZNK6casadi8Sparsity3nnzEv(ptr noundef nonnull align 8 dereferenceable(8) %10)
          to label %13 unwind label %23

13:                                               ; preds = %11
  %14 = icmp eq i64 %12, 0
  br i1 %14, label %15, label %25

15:                                               ; preds = %13
  %16 = invoke noundef ptr @_ZN6casadi2MXptEv(ptr noundef nonnull align 8 dereferenceable(8) %4)
          to label %17 unwind label %23

17:                                               ; preds = %15
  %18 = load ptr, ptr %16, align 8
  %19 = getelementptr inbounds i8, ptr %18, i64 352
  %20 = load ptr, ptr %19, align 8
  %21 = invoke noundef nonnull align 8 dereferenceable(8) ptr %20(ptr noundef nonnull align 8 dereferenceable(64) %16, i64 noundef %2)
          to label %22 unwind label %23

22:                                               ; preds = %17
  invoke void @_ZN6casadi2MXC1ERKNS_8SparsityE(ptr noundef nonnull align 8 dereferenceable(8) %0, ptr noundef nonnull align 8 dereferenceable(8) %21)
          to label %31 unwind label %23

23:                                               ; preds = %28, %25, %22, %17, %15, %11, %6, %3
  %24 = landingpad { ptr, i32 }
          cleanup
  br label %32

25:                                               ; preds = %13
  %26 = invoke noalias noundef nonnull dereferenceable(72) ptr @_Znwm(i64 noundef 72) #19
          to label %27 unwind label %23

27:                                               ; preds = %25
  invoke void @_ZN6casadi10OutputNodeC1ERKNS_2MXEx(ptr noundef nonnull align 8 dereferenceable(72) %26, ptr noundef nonnull align 8 dereferenceable(8) %4, i64 noundef %2)
          to label %28 unwind label %29

28:                                               ; preds = %27
  invoke void @_ZN6casadi2MX6createEPNS_6MXNodeE(ptr dead_on_unwind writable sret(%"class.casadi::MX") align 8 %0, ptr noundef nonnull %26)
          to label %31 unwind label %23

29:                                               ; preds = %27
  %30 = landingpad { ptr, i32 }
          cleanup
  call void @_ZdlPv(ptr noundef nonnull %26) #20
  br label %32

31:                                               ; preds = %28, %22
  call void @_ZN6casadi2MXD1Ev(ptr noundef nonnull align 8 dereferenceable(8) %4) #17
  ret void

32:                                               ; preds = %29, %23
  %.pn = phi { ptr, i32 } [ %24, %23 ], [ %30, %29 ]
  call void @_ZN6casadi2MXD1Ev(ptr noundef nonnull align 8 dereferenceable(8) %4) #17
  resume { ptr, i32 } %.pn
}